; ModuleID = '15/2199.cpp'
source_filename = "15/2199.cpp"
target datalayout = "e-m:e-p270:32:32-p271:32:32-p272:64:64-i64:64-f80:128-n8:16:32:64-S128"
target triple = "x86_64-pc-linux-gnu"

%"class.std::ios_base::Init" = type { i8 }
%"class.std::basic_istream" = type { i32 (...)**, i64, %"class.std::basic_ios" }
%"class.std::basic_ios" = type { %"class.std::ios_base", %"class.std::basic_ostream"*, i8, i8, %"class.std::basic_streambuf"*, %"class.std::ctype"*, %"class.std::num_put"*, %"class.std::num_get"* }
%"class.std::ios_base" = type { i32 (...)**, i64, i64, i32, i32, i32, %"struct.std::ios_base::_Callback_list"*, %"struct.std::ios_base::_Words", [8 x %"struct.std::ios_base::_Words"], i32, %"struct.std::ios_base::_Words"*, %"class.std::locale" }
%"struct.std::ios_base::_Callback_list" = type { %"struct.std::ios_base::_Callback_list"*, void (i32, %"class.std::ios_base"*, i32)*, i32, i32 }
%"struct.std::ios_base::_Words" = type { i8*, i64 }
%"class.std::locale" = type { %"class.std::locale::_Impl"* }
%"class.std::locale::_Impl" = type { i32, %"class.std::locale::facet"**, i64, %"class.std::locale::facet"**, i8** }
%"class.std::locale::facet" = type <{ i32 (...)**, i32, [4 x i8] }>
%"class.std::basic_ostream" = type { i32 (...)**, %"class.std::basic_ios" }
%"class.std::basic_streambuf" = type { i32 (...)**, i8*, i8*, i8*, i8*, i8*, i8*, %"class.std::locale" }
%"class.std::ctype" = type <{ %"class.std::locale::facet.base", [4 x i8], %struct.__locale_struct*, i8, [7 x i8], i32*, i32*, i16*, i8, [256 x i8], [256 x i8], i8, [6 x i8] }>
%"class.std::locale::facet.base" = type <{ i32 (...)**, i32 }>
%struct.__locale_struct = type { [13 x %struct.__locale_data*], i16*, i32*, i32*, [13 x i8*] }
%struct.__locale_data = type opaque
%"class.std::num_put" = type { %"class.std::locale::facet.base", [4 x i8] }
%"class.std::num_get" = type { %"class.std::locale::facet.base", [4 x i8] }

@_ZStL8__ioinit = internal global %"class.std::ios_base::Init" zeroinitializer, align 1
@__dso_handle = external hidden global i8
@_ZSt3cin = external dso_local global %"class.std::basic_istream", align 8
@_ZSt4cout = external dso_local global %"class.std::basic_ostream", align 8
@llvm.global_ctors = appending global [1 x { i32, void ()*, i8* }] [{ i32, void ()*, i8* } { i32 65535, void ()* @_GLOBAL__sub_I_2199.cpp, i8* null }]

; Function Attrs: noinline uwtable
define internal void @__cxx_global_var_init() #0 section ".text.startup" {
  call void @_ZNSt8ios_base4InitC1Ev(%"class.std::ios_base::Init"* @_ZStL8__ioinit)
  %1 = call i32 @__cxa_atexit(void (i8*)* bitcast (void (%"class.std::ios_base::Init"*)* @_ZNSt8ios_base4InitD1Ev to void (i8*)*), i8* getelementptr inbounds (%"class.std::ios_base::Init", %"class.std::ios_base::Init"* @_ZStL8__ioinit, i32 0, i32 0), i8* @__dso_handle) #3
  ret void
}

declare dso_local void @_ZNSt8ios_base4InitC1Ev(%"class.std::ios_base::Init"*) unnamed_addr #1

; Function Attrs: nounwind
declare dso_local void @_ZNSt8ios_base4InitD1Ev(%"class.std::ios_base::Init"*) unnamed_addr #2

; Function Attrs: nounwind
declare dso_local i32 @__cxa_atexit(void (i8*)*, i8*, i8*) #3

; Function Attrs: noinline norecurse uwtable
define dso_local i32 @main() #4 {
  %1 = alloca i32, align 4
  %2 = alloca [300 x [300 x i32]], align 16
  %3 = alloca i32, align 4
  %4 = alloca i32, align 4
  %5 = alloca i32, align 4
  %6 = alloca i32, align 4
  %7 = alloca i32, align 4
  %8 = alloca i32, align 4
  %9 = alloca i32, align 4
  %10 = alloca i32, align 4
  %11 = alloca i32, align 4
  %12 = alloca i32, align 4
  %13 = alloca i32, align 4
  store i32 0, i32* %1, align 4
  %14 = bitcast [300 x [300 x i32]]* %2 to i8*
  call void @llvm.memset.p0i8.i64(i8* align 16 %14, i8 0, i64 360000, i1 false)
  %15 = bitcast i8* %14 to <{ <{ i32, [299 x i32] }>, [299 x <{ i32, [299 x i32] }>] }>*
  %16 = getelementptr inbounds <{ <{ i32, [299 x i32] }>, [299 x <{ i32, [299 x i32] }>] }>, <{ <{ i32, [299 x i32] }>, [299 x <{ i32, [299 x i32] }>] }>* %15, i32 0, i32 0
  %17 = getelementptr inbounds <{ i32, [299 x i32] }>, <{ i32, [299 x i32] }>* %16, i32 0, i32 0
  store i32 1, i32* %17, align 16
  %18 = call dereferenceable(280) %"class.std::basic_istream"* @_ZNSirsERi(%"class.std::basic_istream"* @_ZSt3cin, i32* dereferenceable(4) %3)
  store i32 1, i32* %4, align 4
  br label %19

19:                                               ; preds = %45, %0
  %20 = load i32, i32* %4, align 4
  %21 = load i32, i32* %3, align 4
  %22 = icmp sle i32 %20, %21
  br i1 %22, label %23, label %48

23:                                               ; preds = %19
  store i32 1, i32* %5, align 4
  br label %24

24:                                               ; preds = %41, %23
  %25 = load i32, i32* %5, align 4
  %26 = load i32, i32* %3, align 4
  %27 = icmp sle i32 %25, %26
  br i1 %27, label %28, label %44

28:                                               ; preds = %24
  %29 = call dereferenceable(280) %"class.std::basic_istream"* @_ZNSirsERi(%"class.std::basic_istream"* @_ZSt3cin, i32* dereferenceable(4) %6)
  %30 = load i32, i32* %6, align 4
  %31 = icmp eq i32 %30, 255
  br i1 %31, label %32, label %33

32:                                               ; preds = %28
  store i32 1, i32* %6, align 4
  br label %33

33:                                               ; preds = %32, %28
  %34 = load i32, i32* %6, align 4
  %35 = load i32, i32* %4, align 4
  %36 = sext i32 %35 to i64
  %37 = getelementptr inbounds [300 x [300 x i32]], [300 x [300 x i32]]* %2, i64 0, i64 %36
  %38 = load i32, i32* %5, align 4
  %39 = sext i32 %38 to i64
  %40 = getelementptr inbounds [300 x i32], [300 x i32]* %37, i64 0, i64 %39
  store i32 %34, i32* %40, align 4
  br label %41

41:                                               ; preds = %33
  %42 = load i32, i32* %5, align 4
  %43 = add nsw i32 %42, 1
  store i32 %43, i32* %5, align 4
  br label %24

44:                                               ; preds = %24
  br label %45

45:                                               ; preds = %44
  %46 = load i32, i32* %4, align 4
  %47 = add nsw i32 %46, 1
  store i32 %47, i32* %4, align 4
  br label %19

48:                                               ; preds = %19
  store i32 0, i32* %7, align 4
  store i32 1, i32* %4, align 4
  br label %49

49:                                               ; preds = %79, %48
  %50 = load i32, i32* %4, align 4
  %51 = load i32, i32* %3, align 4
  %52 = icmp sle i32 %50, %51
  br i1 %52, label %53, label %82

53:                                               ; preds = %49
  store i32 1, i32* %5, align 4
  br label %54

54:                                               ; preds = %71, %53
  %55 = load i32, i32* %5, align 4
  %56 = load i32, i32* %3, align 4
  %57 = icmp sle i32 %55, %56
  br i1 %57, label %58, label %74

58:                                               ; preds = %54
  %59 = load i32, i32* %4, align 4
  %60 = sext i32 %59 to i64
  %61 = getelementptr inbounds [300 x [300 x i32]], [300 x [300 x i32]]* %2, i64 0, i64 %60
  %62 = load i32, i32* %5, align 4
  %63 = sext i32 %62 to i64
  %64 = getelementptr inbounds [300 x i32], [300 x i32]* %61, i64 0, i64 %63
  %65 = load i32, i32* %64, align 4
  %66 = icmp eq i32 %65, 0
  br i1 %66, label %67, label %70

67:                                               ; preds = %58
  %68 = load i32, i32* %4, align 4
  store i32 %68, i32* %8, align 4
  %69 = load i32, i32* %5, align 4
  store i32 %69, i32* %9, align 4
  store i32 1, i32* %7, align 4
  br label %74

70:                                               ; preds = %58
  br label %71

71:                                               ; preds = %70
  %72 = load i32, i32* %5, align 4
  %73 = add nsw i32 %72, 1
  store i32 %73, i32* %5, align 4
  br label %54

74:                                               ; preds = %67, %54
  %75 = load i32, i32* %7, align 4
  %76 = icmp ne i32 %75, 0
  br i1 %76, label %77, label %78

77:                                               ; preds = %74
  br label %82

78:                                               ; preds = %74
  br label %79

79:                                               ; preds = %78
  %80 = load i32, i32* %4, align 4
  %81 = add nsw i32 %80, 1
  store i32 %81, i32* %4, align 4
  br label %49

82:                                               ; preds = %77, %49
  store i32 0, i32* %7, align 4
  %83 = load i32, i32* %3, align 4
  store i32 %83, i32* %4, align 4
  br label %84

84:                                               ; preds = %113, %82
  %85 = load i32, i32* %4, align 4
  %86 = icmp sge i32 %85, 1
  br i1 %86, label %87, label %116

87:                                               ; preds = %84
  %88 = load i32, i32* %3, align 4
  store i32 %88, i32* %5, align 4
  br label %89

89:                                               ; preds = %109, %87
  %90 = load i32, i32* %5, align 4
  %91 = icmp sge i32 %90, 1
  br i1 %91, label %92, label %112

92:                                               ; preds = %89
  %93 = load i32, i32* %4, align 4
  %94 = sext i32 %93 to i64
  %95 = getelementptr inbounds [300 x [300 x i32]], [300 x [300 x i32]]* %2, i64 0, i64 %94
  %96 = load i32, i32* %5, align 4
  %97 = sext i32 %96 to i64
  %98 = getelementptr inbounds [300 x i32], [300 x i32]* %95, i64 0, i64 %97
  %99 = load i32, i32* %98, align 4
  %100 = icmp eq i32 %99, 0
  br i1 %100, label %101, label %104

101:                                              ; preds = %92
  %102 = load i32, i32* %4, align 4
  store i32 %102, i32* %10, align 4
  %103 = load i32, i32* %5, align 4
  store i32 %103, i32* %11, align 4
  store i32 1, i32* %7, align 4
  br label %112

104:                                              ; preds = %92
  %105 = load i32, i32* %7, align 4
  %106 = icmp ne i32 %105, 0
  br i1 %106, label %107, label %108

107:                                              ; preds = %104
  br label %112

108:                                              ; preds = %104
  br label %109

109:                                              ; preds = %108
  %110 = load i32, i32* %5, align 4
  %111 = add nsw i32 %110, -1
  store i32 %111, i32* %5, align 4
  br label %89

112:                                              ; preds = %107, %101, %89
  br label %113

113:                                              ; preds = %112
  %114 = load i32, i32* %4, align 4
  %115 = add nsw i32 %114, -1
  store i32 %115, i32* %4, align 4
  br label %84

116:                                              ; preds = %84
  %117 = load i32, i32* %10, align 4
  %118 = load i32, i32* %8, align 4
  %119 = sub nsw i32 %117, %118
  %120 = sub nsw i32 %119, 1
  store i32 %120, i32* %12, align 4
  %121 = load i32, i32* %11, align 4
  %122 = load i32, i32* %9, align 4
  %123 = sub nsw i32 %121, %122
  %124 = sub nsw i32 %123, 1
  store i32 %124, i32* %13, align 4
  %125 = load i32, i32* %12, align 4
  %126 = load i32, i32* %13, align 4
  %127 = mul nsw i32 %125, %126
  %128 = call dereferenceable(272) %"class.std::basic_ostream"* @_ZNSolsEi(%"class.std::basic_ostream"* @_ZSt4cout, i32 %127)
  %129 = call dereferenceable(272) %"class.std::basic_ostream"* @_ZNSolsEPFRSoS_E(%"class.std::basic_ostream"* %128, %"class.std::basic_ostream"* (%"class.std::basic_ostream"*)* @_ZSt4endlIcSt11char_traitsIcEERSt13basic_ostreamIT_T0_ES6_)
  ret i32 0
}

; Function Attrs: argmemonly nounwind willreturn
declare void @llvm.memset.p0i8.i64(i8* nocapture writeonly, i8, i64, i1 immarg) #5

declare dso_local dereferenceable(280) %"class.std::basic_istream"* @_ZNSirsERi(%"class.std::basic_istream"*, i32* dereferenceable(4)) #1

declare dso_local dereferenceable(272) %"class.std::basic_ostream"* @_ZNSolsEi(%"class.std::basic_ostream"*, i32) #1

declare dso_local dereferenceable(272) %"class.std::basic_ostream"* @_ZNSolsEPFRSoS_E(%"class.std::basic_ostream"*, %"class.std::basic_ostream"* (%"class.std::basic_ostream"*)*) #1

declare dso_local dereferenceable(272) %"class.std::basic_ostream"* @_ZSt4endlIcSt11char_traitsIcEERSt13basic_ostreamIT_T0_ES6_(%"class.std::basic_ostream"* dereferenceable(272)) #1

; Function Attrs: noinline uwtable
define internal void @_GLOBAL__sub_I_2199.cpp() #0 section ".text.startup" {
  call void @__cxx_global_var_init()
  ret void
}


!llvm.module.flags = !{!0}
!llvm.ident = !{!1}

!0 = !{i32 1, !"wchar_size", i32 4}
!1 = !{!"clang version 10.0.0-4ubuntu1 "}
