; ModuleID = 'source-C-CXX/14/2199.cpp'
source_filename = "source-C-CXX/14/2199.cpp"
target datalayout = "e-m:e-p270:32:32-p271:32:32-p272:64:64-i64:64-f80:128-n8:16:32:64-S128"
target triple = "x86_64-pc-linux-gnu"

%"class.std::ios_base::Init" = type { i8 }
%"class.std::basic_istream" = type { i32 (...)**, i64, %"class.std::basic_ios" }
%"class.std::basic_ios" = type { %"class.std::ios_base", %"class.std::basic_ostream"*, i8, i8, %"class.std::basic_streambuf"*, %"class.std::ctype"*, %"class.std::num_put"*, %"class.std::num_get"* }
%"class.std::ios_base" = type { i32 (...)**, i64, i64, i32, i32, i32, %"struct.std::ios_base::_Callback_list"*, %"struct.std::ios_base::_Words", [8 x %"struct.std::ios_base::_Words"], i32, %"struct.std::ios_base::_Words"*, %"class.std::locale" }
%"struct.std::ios_base::_Callback_list" = type { %"struct.std::ios_base::_Callback_list"*, void (i32, %"class.std::ios_base"*, i32)*, i32, i32 }
%"struct.std::ios_base::_Words" = type { i8*, i64 }
%"class.std::locale" = type { %"class.std::locale::_Impl"* }
%"class.std::locale::_Impl" = type { i32, %"class.std::locale::facet"**, i64, %"class.std::locale::facet"**, i8** }
%"class.std::locale::facet" = type <{ i32 (...)**, i32, [4 x i8] }>
%"class.std::basic_ostream" = type { i32 (...)**, %"class.std::basic_ios" }
%"class.std::basic_streambuf" = type { i32 (...)**, i8*, i8*, i8*, i8*, i8*, i8*, %"class.std::locale" }
%"class.std::ctype" = type <{ %"class.std::locale::facet.base", [4 x i8], %struct.__locale_struct*, i8, [7 x i8], i32*, i32*, i16*, i8, [256 x i8], [256 x i8], i8, [6 x i8] }>
%"class.std::locale::facet.base" = type <{ i32 (...)**, i32 }>
%struct.__locale_struct = type { [13 x %struct.__locale_data*], i16*, i32*, i32*, [13 x i8*] }
%struct.__locale_data = type opaque
%"class.std::num_put" = type { %"class.std::locale::facet.base", [4 x i8] }
%"class.std::num_get" = type { %"class.std::locale::facet.base", [4 x i8] }

@_ZStL8__ioinit = internal global %"class.std::ios_base::Init" zeroinitializer, align 1
@__dso_handle = external hidden global i8
@_ZSt3cin = external global %"class.std::basic_istream", align 8
@_ZSt4cout = external global %"class.std::basic_ostream", align 8
@llvm.global_ctors = appending global [1 x { i32, void ()*, i8* }] [{ i32, void ()*, i8* } { i32 65535, void ()* @_GLOBAL__sub_I_2199.cpp, i8* null }]

declare void @_ZNSt8ios_base4InitC1Ev(%"class.std::ios_base::Init"* nonnull align 1 dereferenceable(1)) unnamed_addr #0

; Function Attrs: nounwind
declare void @_ZNSt8ios_base4InitD1Ev(%"class.std::ios_base::Init"* nonnull align 1 dereferenceable(1)) unnamed_addr #1

; Function Attrs: nofree nounwind
declare i32 @__cxa_atexit(void (i8*)*, i8*, i8*) local_unnamed_addr #2

; Function Attrs: mustprogress norecurse sspstrong uwtable
define dso_local i32 @main() local_unnamed_addr #3 {
  %1 = alloca [300 x [300 x i32]], align 16
  %2 = alloca i32, align 4
  %3 = alloca i32, align 4
  %4 = bitcast [300 x [300 x i32]]* %1 to i8*
  call void @llvm.lifetime.start.p0i8(i64 360000, i8* nonnull %4) #8
  call void @llvm.memset.p0i8.i64(i8* noundef nonnull align 16 dereferenceable(360000) %4, i8 0, i64 360000, i1 false)
  %5 = getelementptr inbounds [300 x [300 x i32]], [300 x [300 x i32]]* %1, i64 0, i64 0, i64 0
  store i32 1, i32* %5, align 16
  %6 = bitcast i32* %2 to i8*
  call void @llvm.lifetime.start.p0i8(i64 4, i8* nonnull %6) #8
  %7 = call nonnull align 8 dereferenceable(16) %"class.std::basic_istream"* @_ZNSirsERi(%"class.std::basic_istream"* nonnull align 8 dereferenceable(16) @_ZSt3cin, i32* nonnull align 4 dereferenceable(4) %2)
  %8 = bitcast i32* %3 to i8*
  %9 = load i32, i32* %2, align 4, !tbaa !5
  %10 = icmp slt i32 %9, 1
  br i1 %10, label %89, label %11

11:                                               ; preds = %0, %32
  %12 = phi i32 [ %33, %32 ], [ %9, %0 ]
  %13 = phi i64 [ %35, %32 ], [ 1, %0 ]
  %14 = icmp slt i32 %12, 1
  br i1 %14, label %32, label %21

15:                                               ; preds = %32
  %16 = icmp slt i32 %33, 1
  br i1 %16, label %89, label %17

17:                                               ; preds = %15
  %18 = add nuw i32 %33, 1
  %19 = add nuw i32 %33, 1
  %20 = zext i32 %18 to i64
  br label %37

21:                                               ; preds = %11, %21
  %22 = phi i64 [ %28, %21 ], [ 1, %11 ]
  call void @llvm.lifetime.start.p0i8(i64 4, i8* nonnull %8) #8
  %23 = call nonnull align 8 dereferenceable(16) %"class.std::basic_istream"* @_ZNSirsERi(%"class.std::basic_istream"* nonnull align 8 dereferenceable(16) @_ZSt3cin, i32* nonnull align 4 dereferenceable(4) %3)
  %24 = load i32, i32* %3, align 4, !tbaa !5
  %25 = icmp eq i32 %24, 255
  %26 = select i1 %25, i32 1, i32 %24
  %27 = getelementptr inbounds [300 x [300 x i32]], [300 x [300 x i32]]* %1, i64 0, i64 %13, i64 %22
  store i32 %26, i32* %27, align 4, !tbaa !5
  call void @llvm.lifetime.end.p0i8(i64 4, i8* nonnull %8) #8
  %28 = add nuw nsw i64 %22, 1
  %29 = load i32, i32* %2, align 4, !tbaa !5
  %30 = sext i32 %29 to i64
  %31 = icmp slt i64 %22, %30
  br i1 %31, label %21, label %32, !llvm.loop !9

32:                                               ; preds = %21, %11
  %33 = phi i32 [ %12, %11 ], [ %29, %21 ]
  %34 = sext i32 %33 to i64
  %35 = add nuw nsw i64 %13, 1
  %36 = icmp slt i64 %13, %34
  br i1 %36, label %11, label %15, !llvm.loop !11

37:                                               ; preds = %17, %47
  %38 = phi i64 [ 1, %17 ], [ %48, %47 ]
  br label %39

39:                                               ; preds = %37, %44
  %40 = phi i64 [ 1, %37 ], [ %45, %44 ]
  %41 = getelementptr inbounds [300 x [300 x i32]], [300 x [300 x i32]]* %1, i64 0, i64 %38, i64 %40
  %42 = load i32, i32* %41, align 4, !tbaa !5
  %43 = icmp eq i32 %42, 0
  br i1 %43, label %50, label %44

44:                                               ; preds = %39
  %45 = add nuw nsw i64 %40, 1
  %46 = icmp eq i64 %45, %20
  br i1 %46, label %47, label %39, !llvm.loop !13

47:                                               ; preds = %44
  %48 = add nuw nsw i64 %38, 1
  %49 = icmp eq i64 %48, %20
  br i1 %49, label %54, label %37, !llvm.loop !14

50:                                               ; preds = %39
  %51 = trunc i64 %38 to i32
  %52 = trunc i64 %40 to i32
  %53 = xor i32 %52, -1
  br label %54

54:                                               ; preds = %47, %50
  %55 = phi i32 [ %51, %50 ], [ %19, %47 ]
  %56 = phi i32 [ %53, %50 ], [ undef, %47 ]
  %57 = zext i32 %33 to i64
  %58 = icmp sgt i32 %33, 0
  br i1 %58, label %59, label %89

59:                                               ; preds = %54
  %60 = zext i32 %33 to i64
  br label %61

61:                                               ; preds = %59, %67
  %62 = phi i64 [ %60, %59 ], [ %71, %67 ]
  %63 = phi i32 [ undef, %59 ], [ %70, %67 ]
  %64 = phi i32 [ undef, %59 ], [ %69, %67 ]
  %65 = phi i32 [ 0, %59 ], [ %68, %67 ]
  %66 = icmp eq i32 %65, 0
  br i1 %66, label %80, label %73

67:                                               ; preds = %86, %73, %77
  %68 = phi i32 [ 1, %77 ], [ 1, %73 ], [ 0, %86 ]
  %69 = phi i32 [ %79, %77 ], [ %64, %73 ], [ %64, %86 ]
  %70 = phi i32 [ %78, %77 ], [ %63, %73 ], [ %63, %86 ]
  %71 = add nsw i64 %62, -1
  %72 = icmp sgt i64 %62, 1
  br i1 %72, label %61, label %89, !llvm.loop !15

73:                                               ; preds = %61
  %74 = getelementptr inbounds [300 x [300 x i32]], [300 x [300 x i32]]* %1, i64 0, i64 %62, i64 %57
  %75 = load i32, i32* %74, align 4, !tbaa !5
  %76 = icmp eq i32 %75, 0
  br i1 %76, label %77, label %67

77:                                               ; preds = %80, %73
  %78 = phi i32 [ %33, %73 ], [ %81, %80 ]
  %79 = trunc i64 %62 to i32
  br label %67

80:                                               ; preds = %61, %86
  %81 = phi i32 [ %87, %86 ], [ %33, %61 ]
  %82 = zext i32 %81 to i64
  %83 = getelementptr inbounds [300 x [300 x i32]], [300 x [300 x i32]]* %1, i64 0, i64 %62, i64 %82
  %84 = load i32, i32* %83, align 4, !tbaa !5
  %85 = icmp eq i32 %84, 0
  br i1 %85, label %77, label %86

86:                                               ; preds = %80
  %87 = add nsw i32 %81, -1
  %88 = icmp sgt i32 %81, 1
  br i1 %88, label %80, label %67, !llvm.loop !16

89:                                               ; preds = %67, %0, %15, %54
  %90 = phi i32 [ %56, %54 ], [ undef, %15 ], [ undef, %0 ], [ %56, %67 ]
  %91 = phi i32 [ %55, %54 ], [ 1, %15 ], [ 1, %0 ], [ %55, %67 ]
  %92 = phi i32 [ undef, %54 ], [ undef, %15 ], [ undef, %0 ], [ %69, %67 ]
  %93 = phi i32 [ undef, %54 ], [ undef, %15 ], [ undef, %0 ], [ %70, %67 ]
  %94 = xor i32 %91, -1
  %95 = add i32 %92, %94
  %96 = add i32 %93, %90
  %97 = mul nsw i32 %96, %95
  %98 = call nonnull align 8 dereferenceable(8) %"class.std::basic_ostream"* @_ZNSolsEi(%"class.std::basic_ostream"* nonnull align 8 dereferenceable(8) @_ZSt4cout, i32 %97)
  %99 = bitcast %"class.std::basic_ostream"* %98 to i8**
  %100 = load i8*, i8** %99, align 8, !tbaa !17
  %101 = getelementptr i8, i8* %100, i64 -24
  %102 = bitcast i8* %101 to i64*
  %103 = load i64, i64* %102, align 8
  %104 = bitcast %"class.std::basic_ostream"* %98 to i8*
  %105 = add nsw i64 %103, 240
  %106 = getelementptr inbounds i8, i8* %104, i64 %105
  %107 = bitcast i8* %106 to %"class.std::ctype"**
  %108 = load %"class.std::ctype"*, %"class.std::ctype"** %107, align 8, !tbaa !19
  %109 = icmp eq %"class.std::ctype"* %108, null
  br i1 %109, label %110, label %111

110:                                              ; preds = %89
  call void @_ZSt16__throw_bad_castv() #9
  unreachable

111:                                              ; preds = %89
  %112 = getelementptr inbounds %"class.std::ctype", %"class.std::ctype"* %108, i64 0, i32 8
  %113 = load i8, i8* %112, align 8, !tbaa !23
  %114 = icmp eq i8 %113, 0
  br i1 %114, label %118, label %115

115:                                              ; preds = %111
  %116 = getelementptr inbounds %"class.std::ctype", %"class.std::ctype"* %108, i64 0, i32 9, i64 10
  %117 = load i8, i8* %116, align 1, !tbaa !25
  br label %124

118:                                              ; preds = %111
  call void @_ZNKSt5ctypeIcE13_M_widen_initEv(%"class.std::ctype"* nonnull align 8 dereferenceable(570) %108)
  %119 = bitcast %"class.std::ctype"* %108 to i8 (%"class.std::ctype"*, i8)***
  %120 = load i8 (%"class.std::ctype"*, i8)**, i8 (%"class.std::ctype"*, i8)*** %119, align 8, !tbaa !17
  %121 = getelementptr inbounds i8 (%"class.std::ctype"*, i8)*, i8 (%"class.std::ctype"*, i8)** %120, i64 6
  %122 = load i8 (%"class.std::ctype"*, i8)*, i8 (%"class.std::ctype"*, i8)** %121, align 8
  %123 = call signext i8 %122(%"class.std::ctype"* nonnull align 8 dereferenceable(570) %108, i8 signext 10)
  br label %124

124:                                              ; preds = %115, %118
  %125 = phi i8 [ %117, %115 ], [ %123, %118 ]
  %126 = call nonnull align 8 dereferenceable(8) %"class.std::basic_ostream"* @_ZNSo3putEc(%"class.std::basic_ostream"* nonnull align 8 dereferenceable(8) %98, i8 signext %125)
  %127 = call nonnull align 8 dereferenceable(8) %"class.std::basic_ostream"* @_ZNSo5flushEv(%"class.std::basic_ostream"* nonnull align 8 dereferenceable(8) %126)
  call void @llvm.lifetime.end.p0i8(i64 4, i8* nonnull %6) #8
  call void @llvm.lifetime.end.p0i8(i64 360000, i8* nonnull %4) #8
  ret i32 0
}

; Function Attrs: argmemonly mustprogress nofree nosync nounwind willreturn
declare void @llvm.lifetime.start.p0i8(i64 immarg, i8* nocapture) #4

; Function Attrs: argmemonly mustprogress nofree nounwind willreturn writeonly
declare void @llvm.memset.p0i8.i64(i8* nocapture writeonly, i8, i64, i1 immarg) #5

declare nonnull align 8 dereferenceable(16) %"class.std::basic_istream"* @_ZNSirsERi(%"class.std::basic_istream"* nonnull align 8 dereferenceable(16), i32* nonnull align 4 dereferenceable(4)) local_unnamed_addr #0

; Function Attrs: argmemonly mustprogress nofree nosync nounwind willreturn
declare void @llvm.lifetime.end.p0i8(i64 immarg, i8* nocapture) #4

declare nonnull align 8 dereferenceable(8) %"class.std::basic_ostream"* @_ZNSolsEi(%"class.std::basic_ostream"* nonnull align 8 dereferenceable(8), i32) local_unnamed_addr #0

declare nonnull align 8 dereferenceable(8) %"class.std::basic_ostream"* @_ZNSo3putEc(%"class.std::basic_ostream"* nonnull align 8 dereferenceable(8), i8 signext) local_unnamed_addr #0

declare nonnull align 8 dereferenceable(8) %"class.std::basic_ostream"* @_ZNSo5flushEv(%"class.std::basic_ostream"* nonnull align 8 dereferenceable(8)) local_unnamed_addr #0

; Function Attrs: noreturn
declare void @_ZSt16__throw_bad_castv() local_unnamed_addr #6

declare void @_ZNKSt5ctypeIcE13_M_widen_initEv(%"class.std::ctype"* nonnull align 8 dereferenceable(570)) local_unnamed_addr #0

; Function Attrs: sspstrong uwtable
define internal void @_GLOBAL__sub_I_2199.cpp() #7 section ".text.startup" {
  tail call void @_ZNSt8ios_base4InitC1Ev(%"class.std::ios_base::Init"* nonnull align 1 dereferenceable(1) @_ZStL8__ioinit)
  %1 = tail call i32 @__cxa_atexit(void (i8*)* bitcast (void (%"class.std::ios_base::Init"*)* @_ZNSt8ios_base4InitD1Ev to void (i8*)*), i8* getelementptr inbounds (%"class.std::ios_base::Init", %"class.std::ios_base::Init"* @_ZStL8__ioinit, i64 0, i32 0), i8* nonnull @__dso_handle) #8
  ret void
}


!llvm.module.flags = !{!0, !1, !2, !3}
!llvm.ident = !{!4}

!0 = !{i32 1, !"wchar_size", i32 4}
!1 = !{i32 7, !"PIC Level", i32 2}
!2 = !{i32 7, !"PIE Level", i32 2}
!3 = !{i32 7, !"uwtable", i32 1}
!4 = !{!"clang version 13.0.0"}
!5 = !{!6, !6, i64 0}
!6 = !{!"int", !7, i64 0}
!7 = !{!"omnipotent char", !8, i64 0}
!8 = !{!"Simple C++ TBAA"}
!9 = distinct !{!9, !10}
!10 = !{!"llvm.loop.mustprogress"}
!11 = distinct !{!11, !10, !12}
!12 = !{!"llvm.loop.unswitch.partial.disable"}
!13 = distinct !{!13, !10}
!14 = distinct !{!14, !10}
!15 = distinct !{!15, !10}
!16 = distinct !{!16, !10}
!17 = !{!18, !18, i64 0}
!18 = !{!"vtable pointer", !8, i64 0}
!19 = !{!20, !21, i64 240}
!20 = !{!"_ZTSSt9basic_iosIcSt11char_traitsIcEE", !21, i64 216, !7, i64 224, !22, i64 225, !21, i64 232, !21, i64 240, !21, i64 248, !21, i64 256}
!21 = !{!"any pointer", !7, i64 0}
!22 = !{!"bool", !7, i64 0}
!23 = !{!24, !7, i64 56}
!24 = !{!"_ZTSSt5ctypeIcE", !21, i64 16, !22, i64 24, !21, i64 32, !21, i64 40, !21, i64 48, !7, i64 56, !7, i64 57, !7, i64 313, !7, i64 569}
!25 = !{!7, !7, i64 0}
